target datalayout = "e-m:e-p270:32:32-p271:32:32-p272:64:64-i64:64-i128:128-f80:128-n8:16:32:64-S128"
target triple = "x86_64-pc-linux-gnu"

%struct.textlabel_t = type { ptr, ptr, ptr, i32, double, %struct.pointf_s, %struct.pointf_s, %struct.pointf_s, %union.anon, i8, i8, i8 }
%struct.pointf_s = type { double, double }
%union.anon = type { %struct.anon }
%struct.anon = type { ptr, i64 }
%struct.textspan_t = type { ptr, ptr, ptr, ptr, double, double, %struct.pointf_s, i8 }

; Function Attrs: nounwind uwtable
define void @free_textspan(ptr noundef %0, i64 noundef %1) #0 {
  %3 = alloca ptr, align 8
  %4 = alloca i64, align 8
  %5 = alloca ptr, align 8
  %6 = alloca i32, align 4
  %7 = alloca i64, align 8
  store ptr %0, ptr %3, align 8, !tbaa !26
  store i64 %1, ptr %4, align 8, !tbaa !27
  call void @llvm.lifetime.start.p0(i64 8, ptr %5) #13
  %8 = load ptr, ptr %3, align 8, !tbaa !26
  store ptr %8, ptr %5, align 8, !tbaa !26
  %9 = load ptr, ptr %3, align 8, !tbaa !26
  %10 = icmp ne ptr %9, null
  br i1 %10, label %12, label %11

11:                                               ; preds = %2
  store i32 1, ptr %6, align 4
  br label %46

12:                                               ; preds = %2
  call void @llvm.lifetime.start.p0(i64 8, ptr %7) #13
  store i64 0, ptr %7, align 8, !tbaa !27
  br label %13

13:                                               ; preds = %41, %12
  %14 = load i64, ptr %7, align 8, !tbaa !27
  %15 = load i64, ptr %4, align 8, !tbaa !27
  %16 = icmp ult i64 %14, %15
  br i1 %16, label %18, label %17

17:                                               ; preds = %13
  store i32 2, ptr %6, align 4
  call void @llvm.lifetime.end.p0(i64 8, ptr %7) #13
  br label %44

18:                                               ; preds = %13
  %19 = load ptr, ptr %5, align 8, !tbaa !26
  %20 = getelementptr inbounds nuw %struct.textspan_t, ptr %19, i32 0, i32 0
  %21 = load ptr, ptr %20, align 8, !tbaa !29
  call void @free(ptr noundef %21) #13
  %22 = load ptr, ptr %5, align 8, !tbaa !26
  %23 = getelementptr inbounds nuw %struct.textspan_t, ptr %22, i32 0, i32 2
  %24 = load ptr, ptr %23, align 8, !tbaa !118
  %25 = icmp ne ptr %24, null
  br i1 %25, label %26, label %38

26:                                               ; preds = %18
  %27 = load ptr, ptr %5, align 8, !tbaa !26
  %28 = getelementptr inbounds nuw %struct.textspan_t, ptr %27, i32 0, i32 3
  %29 = load ptr, ptr %28, align 8, !tbaa !119
  %30 = icmp ne ptr %29, null
  br i1 %30, label %31, label %38

31:                                               ; preds = %26
  %32 = load ptr, ptr %5, align 8, !tbaa !26
  %33 = getelementptr inbounds nuw %struct.textspan_t, ptr %32, i32 0, i32 3
  %34 = load ptr, ptr %33, align 8, !tbaa !119
  %35 = load ptr, ptr %5, align 8, !tbaa !26
  %36 = getelementptr inbounds nuw %struct.textspan_t, ptr %35, i32 0, i32 2
  %37 = load ptr, ptr %36, align 8, !tbaa !118
  call void %34(ptr noundef %37)
  br label %38

38:                                               ; preds = %31, %26, %18
  %39 = load ptr, ptr %5, align 8, !tbaa !26
  %40 = getelementptr inbounds nuw %struct.textspan_t, ptr %39, i32 1
  store ptr %40, ptr %5, align 8, !tbaa !26
  br label %41

41:                                               ; preds = %38
  %42 = load i64, ptr %7, align 8, !tbaa !27
  %43 = add i64 %42, 1
  store i64 %43, ptr %7, align 8, !tbaa !27
  br label %13, !llvm.loop !120

44:                                               ; preds = %17
  %45 = load ptr, ptr %3, align 8, !tbaa !26
  call void @free(ptr noundef %45) #13
  store i32 0, ptr %6, align 4
  br label %46

46:                                               ; preds = %44, %11
  call void @llvm.lifetime.end.p0(i64 8, ptr %5) #13
  %47 = load i32, ptr %6, align 4
  switch i32 %47, label %49 [
    i32 0, label %48
    i32 1, label %48
  ]

48:                                               ; preds = %46, %46
  ret void

49:                                               ; preds = %46
  unreachable
}

; Function Attrs: nounwind uwtable
define void @free_label(ptr noundef %0) #0 {
  %2 = alloca ptr, align 8
  store ptr %0, ptr %2, align 8, !tbaa !8
  %3 = load ptr, ptr %2, align 8, !tbaa !8
  %4 = icmp ne ptr %3, null
  br i1 %4, label %5, label %34

5:                                                ; preds = %1
  %6 = load ptr, ptr %2, align 8, !tbaa !8
  %7 = getelementptr inbounds nuw %struct.textlabel_t, ptr %6, i32 0, i32 0
  %8 = load ptr, ptr %7, align 8, !tbaa !18
  call void @free(ptr noundef %8) #13
  %9 = load ptr, ptr %2, align 8, !tbaa !8
  %10 = getelementptr inbounds nuw %struct.textlabel_t, ptr %9, i32 0, i32 11
  %11 = load i8, ptr %10, align 2, !tbaa !95, !range !115, !noundef !116
  %12 = trunc i8 %11 to i1
  br i1 %12, label %13, label %23

13:                                               ; preds = %5
  %14 = load ptr, ptr %2, align 8, !tbaa !8
  %15 = getelementptr inbounds nuw %struct.textlabel_t, ptr %14, i32 0, i32 8
  %16 = load ptr, ptr %15, align 8, !tbaa !19
  %17 = icmp ne ptr %16, null
  br i1 %17, label %18, label %22

18:                                               ; preds = %13
  %19 = load ptr, ptr %2, align 8, !tbaa !8
  %20 = getelementptr inbounds nuw %struct.textlabel_t, ptr %19, i32 0, i32 8
  %21 = load ptr, ptr %20, align 8, !tbaa !19
  call void @free_html_label(ptr noundef %21, i32 noundef 1)
  br label %22

22:                                               ; preds = %18, %13
  br label %32

23:                                               ; preds = %5
  %24 = load ptr, ptr %2, align 8, !tbaa !8
  %25 = getelementptr inbounds nuw %struct.textlabel_t, ptr %24, i32 0, i32 8
  %26 = getelementptr inbounds nuw %struct.anon, ptr %25, i32 0, i32 0
  %27 = load ptr, ptr %26, align 8, !tbaa !19
  %28 = load ptr, ptr %2, align 8, !tbaa !8
  %29 = getelementptr inbounds nuw %struct.textlabel_t, ptr %28, i32 0, i32 8
  %30 = getelementptr inbounds nuw %struct.anon, ptr %29, i32 0, i32 1
  %31 = load i64, ptr %30, align 8, !tbaa !19
  call void @free_textspan(ptr noundef %27, i64 noundef %31)
  br label %32

32:                                               ; preds = %23, %22
  %33 = load ptr, ptr %2, align 8, !tbaa !8
  call void @free(ptr noundef %33) #13
  br label %34

34:                                               ; preds = %32, %1
  ret void
}