; Function Attrs: nounwind uwtable
define void @free_label(ptr noundef captures(address_is_null) %0) local_unnamed_addr #0 {
  %.not = icmp eq ptr %0, null
  br i1 %.not, label %24, label %2

2:                                                ; preds = %1
  %3 = load ptr, ptr %0, align 8, !tbaa !3
  tail call void @free(ptr noundef %3) #16
  %4 = getelementptr inbounds nuw i8, ptr %0, i64 106
  %5 = load i8, ptr %4, align 2, !tbaa !85, !range !106, !noundef !107
  %6 = trunc nuw i8 %5 to i1
  %7 = getelementptr inbounds nuw i8, ptr %0, i64 88
  %8 = load ptr, ptr %7, align 8, !tbaa !13
  br i1 %6, label %9, label %11

9:                                                ; preds = %2
  %.not9 = icmp eq ptr %8, null
  br i1 %.not9, label %free_textspan.exit, label %10

10:                                               ; preds = %9
  tail call void @free_html_label(ptr noundef nonnull %8, i32 noundef 1) #16
  br label %free_textspan.exit

11:                                               ; preds = %2
  %12 = getelementptr inbounds nuw i8, ptr %0, i64 96
  %13 = load i64, ptr %12, align 8, !tbaa !13
  %.not.i = icmp eq ptr %8, null
  br i1 %.not.i, label %free_textspan.exit, label %.preheader.i

.preheader.i:                                     ; preds = %11
  %.not19.i = icmp eq i64 %13, 0
  br i1 %.not19.i, label %._crit_edge.i, label %.lr.ph.i

._crit_edge.i:                                    ; preds = %21, %.preheader.i
  tail call void @free(ptr noundef %8) #16
  br label %free_textspan.exit

.lr.ph.i:                                         ; preds = %.preheader.i, %21
  %.018.i = phi i64 [ %23, %21 ], [ 0, %.preheader.i ]
  %.01117.i = phi ptr [ %22, %21 ], [ %8, %.preheader.i ]
  %14 = load ptr, ptr %.01117.i, align 8, !tbaa !21
  tail call void @free(ptr noundef %14) #16
  %15 = getelementptr inbounds nuw i8, ptr %.01117.i, i64 16
  %16 = load ptr, ptr %15, align 8, !tbaa !103
  %.not15.i = icmp eq ptr %16, null
  br i1 %.not15.i, label %21, label %17

17:                                               ; preds = %.lr.ph.i
  %18 = getelementptr inbounds nuw i8, ptr %.01117.i, i64 24
  %19 = load ptr, ptr %18, align 8, !tbaa !104
  %.not16.i = icmp eq ptr %19, null
  br i1 %.not16.i, label %21, label %20

20:                                               ; preds = %17
  tail call void %19(ptr noundef nonnull %16) #16
  br label %21

21:                                               ; preds = %20, %17, %.lr.ph.i
  %22 = getelementptr inbounds nuw i8, ptr %.01117.i, i64 72
  %23 = add nuw i64 %.018.i, 1
  %exitcond.not.i = icmp eq i64 %23, %13
  br i1 %exitcond.not.i, label %._crit_edge.i, label %.lr.ph.i, !llvm.loop !105

free_textspan.exit:                               ; preds = %._crit_edge.i, %11, %9, %10
  tail call void @free(ptr noundef %0) #16
  br label %24

24:                                               ; preds = %free_textspan.exit, %1
  ret void
}